; Function Attrs: mustprogress uwtable
define void @_ZNK12FilterSSynth10filterInfoEi(ptr dead_on_unwind noalias nocapture writable writeonly sret(%class.QString) align 8 %0, ptr nocapture noundef nonnull readnone align 8 dereferenceable(160) %1, i32 noundef %2) unnamed_addr #9 align 2 {
  %cond = icmp eq i32 %2, 0
  br i1 %cond, label %4, label %6

4:                                                ; preds = %3
  %5 = tail call noundef ptr @_ZN7QString16fromAscii_helperEPKci(ptr noundef nonnull @.str.11, i32 noundef 135)
  br label %8

6:                                                ; preds = %3
  %7 = tail call noundef ptr @_ZN7QString16fromAscii_helperEPKci(ptr noundef nonnull @.str.12, i32 noundef 5)
  br label %8

8:                                                ; preds = %6, %4
  %storemerge = phi ptr [ %7, %6 ], [ %5, %4 ]
  store ptr %storemerge, ptr %0, align 8
  ret void
}